; Function Attrs: nounwind uwtable
define internal fastcc ptr @getRelationsInNamespace(i32 noundef %0, i8 noundef signext range(i8 83, 119) %1) unnamed_addr #0 {
  %3 = alloca [2 x %struct.ScanKeyData], align 16
  call void @llvm.lifetime.start.p0(i64 144, ptr nonnull %3) #9
  %4 = zext i32 %0 to i64
  call void @ScanKeyInit(ptr noundef nonnull %3, i16 noundef signext 3, i16 noundef zeroext 3, i32 noundef 184, i64 noundef %4) #9
  %5 = getelementptr inbounds nuw i8, ptr %3, i64 72
  %6 = zext nneg i8 %1 to i64
  call void @ScanKeyInit(ptr noundef nonnull %5, i16 noundef signext 17, i16 noundef zeroext 3, i32 noundef 61, i64 noundef %6) #9
  %7 = call ptr @table_open(i32 noundef 1259, i32 noundef 1) #9
  %8 = call ptr @table_beginscan_catalog(ptr noundef %7, i32 noundef 2, ptr noundef nonnull %3) #9
  %9 = call ptr @heap_getnext(ptr noundef %8, i32 noundef 1) #9
  %.not10 = icmp eq ptr %9, null
  br i1 %.not10, label %._crit_edge, label %.lr.ph

.lr.ph:                                           ; preds = %2, %.lr.ph
  %10 = phi ptr [ %18, %.lr.ph ], [ %9, %2 ]
  %.011 = phi ptr [ %17, %.lr.ph ], [ null, %2 ]
  %11 = getelementptr i8, ptr %10, i64 16
  %.val = load ptr, ptr %11, align 8
  %12 = getelementptr inbounds nuw i8, ptr %.val, i64 22
  %13 = load i8, ptr %12, align 2
  %14 = zext i8 %13 to i64
  %15 = getelementptr inbounds nuw i8, ptr %.val, i64 %14
  %16 = load i32, ptr %15, align 4
  %17 = call ptr @lappend_oid(ptr noundef %.011, i32 noundef %16) #9
  %18 = call ptr @heap_getnext(ptr noundef %8, i32 noundef 1) #9
  %.not = icmp eq ptr %18, null
  br i1 %.not, label %._crit_edge, label %.lr.ph, !llvm.loop !18

._crit_edge:                                      ; preds = %.lr.ph, %2
  %.0.lcssa = phi ptr [ null, %2 ], [ %17, %.lr.ph ]
  %19 = load ptr, ptr %8, align 8
  %20 = getelementptr inbounds nuw i8, ptr %19, i64 320
  %21 = load ptr, ptr %20, align 8
  %22 = getelementptr inbounds nuw i8, ptr %21, i64 24
  %23 = load ptr, ptr %22, align 8
  call void %23(ptr noundef nonnull %8) #9
  call void @table_close(ptr noundef %7, i32 noundef 1) #9
  call void @llvm.lifetime.end.p0(i64 144, ptr nonnull %3) #9
  ret ptr %.0.lcssa
}